; Function Attrs: mustprogress nounwind uwtable
define dso_local noundef ptr @_ZN4llvm11AddressPool10emitHeaderERNS_10AsmPrinterEPNS_9MCSectionE(ptr nonnull readnone align 8 captures(none) %0, ptr noundef nonnull align 8 dereferenceable(785) %1, ptr readnone captures(none) %2) local_unnamed_addr #0 align 2 {
  %4 = alloca %"class.llvm::Twine", align 8
  %5 = alloca %"class.llvm::Twine", align 8
  %6 = alloca %"class.llvm::Twine", align 8
  %7 = alloca %"class.llvm::Twine", align 8
  %8 = alloca %"class.llvm::Twine", align 8
  %9 = load atomic i8, ptr @_ZGVZN4llvm11AddressPool10emitHeaderERNS_10AsmPrinterEPNS_9MCSectionEE8AddrSize acquire, align 8
  %10 = icmp eq i8 %9, 0
  br i1 %10, label %11, label %19, !prof !11

11:                                               ; preds = %3
  %12 = tail call i32 @__cxa_guard_acquire(ptr nonnull @_ZGVZN4llvm11AddressPool10emitHeaderERNS_10AsmPrinterEPNS_9MCSectionEE8AddrSize) #7
  %.not = icmp eq i32 %12, 0
  br i1 %.not, label %19, label %13

13:                                               ; preds = %11
  %14 = getelementptr inbounds nuw i8, ptr %1, i64 64
  %15 = load ptr, ptr %14, align 8
  %16 = getelementptr inbounds nuw i8, ptr %15, i64 8
  %17 = load i32, ptr %16, align 8
  %18 = trunc i32 %17 to i8
  store i8 %18, ptr @_ZZN4llvm11AddressPool10emitHeaderERNS_10AsmPrinterEPNS_9MCSectionEE8AddrSize, align 1
  tail call void @__cxa_guard_release(ptr nonnull @_ZGVZN4llvm11AddressPool10emitHeaderERNS_10AsmPrinterEPNS_9MCSectionEE8AddrSize) #7
  br label %19

19:                                               ; preds = %13, %11, %3
  %20 = getelementptr inbounds nuw i8, ptr %4, i64 32
  %21 = getelementptr inbounds nuw i8, ptr %4, i64 33
  store i8 1, ptr %21, align 1
  store ptr @.str, ptr %4, align 8
  store i8 3, ptr %20, align 8
  %22 = getelementptr inbounds nuw i8, ptr %5, i64 32
  %23 = getelementptr inbounds nuw i8, ptr %5, i64 33
  store i8 1, ptr %23, align 1
  store ptr @.str.1, ptr %5, align 8
  store i8 3, ptr %22, align 8
  %24 = call noundef ptr @_ZNK4llvm10AsmPrinter19emitDwarfUnitLengthERKNS_5TwineES3_(ptr noundef nonnull align 8 dereferenceable(785) %1, ptr noundef nonnull align 8 dereferenceable(34) %4, ptr noundef nonnull align 8 dereferenceable(34) %5) #7
  %25 = getelementptr inbounds nuw i8, ptr %1, i64 80
  %26 = load ptr, ptr %25, align 8
  %27 = getelementptr inbounds nuw i8, ptr %6, i64 32
  %28 = getelementptr inbounds nuw i8, ptr %6, i64 33
  store i8 1, ptr %28, align 1
  store ptr @.str.2, ptr %6, align 8
  store i8 3, ptr %27, align 8
  %29 = load ptr, ptr %26, align 8
  %30 = getelementptr inbounds nuw i8, ptr %29, i64 120
  %31 = load ptr, ptr %30, align 8
  call void %31(ptr noundef nonnull align 8 dereferenceable(288) %26, ptr noundef nonnull align 8 dereferenceable(34) %6, i1 noundef zeroext true) #7
  %32 = call noundef zeroext i16 @_ZNK4llvm10AsmPrinter15getDwarfVersionEv(ptr noundef nonnull align 8 dereferenceable(785) %1) #7
  %33 = zext i16 %32 to i32
  call void @_ZNK4llvm10AsmPrinter9emitInt16Ei(ptr noundef nonnull align 8 dereferenceable(785) %1, i32 noundef %33) #7
  %34 = load ptr, ptr %25, align 8
  %35 = getelementptr inbounds nuw i8, ptr %7, i64 32
  %36 = getelementptr inbounds nuw i8, ptr %7, i64 33
  store i8 1, ptr %36, align 1
  store ptr @.str.3, ptr %7, align 8
  store i8 3, ptr %35, align 8
  %37 = load ptr, ptr %34, align 8
  %38 = getelementptr inbounds nuw i8, ptr %37, i64 120
  %39 = load ptr, ptr %38, align 8
  call void %39(ptr noundef nonnull align 8 dereferenceable(288) %34, ptr noundef nonnull align 8 dereferenceable(34) %7, i1 noundef zeroext true) #7
  %40 = load i8, ptr @_ZZN4llvm11AddressPool10emitHeaderERNS_10AsmPrinterEPNS_9MCSectionEE8AddrSize, align 1
  %41 = zext i8 %40 to i32
  call void @_ZNK4llvm10AsmPrinter8emitInt8Ei(ptr noundef nonnull align 8 dereferenceable(785) %1, i32 noundef %41) #7
  %42 = load ptr, ptr %25, align 8
  %43 = getelementptr inbounds nuw i8, ptr %8, i64 32
  %44 = getelementptr inbounds nuw i8, ptr %8, i64 33
  store i8 1, ptr %44, align 1
  store ptr @.str.4, ptr %8, align 8
  store i8 3, ptr %43, align 8
  %45 = load ptr, ptr %42, align 8
  %46 = getelementptr inbounds nuw i8, ptr %45, i64 120
  %47 = load ptr, ptr %46, align 8
  call void %47(ptr noundef nonnull align 8 dereferenceable(288) %42, ptr noundef nonnull align 8 dereferenceable(34) %8, i1 noundef zeroext true) #7
  call void @_ZNK4llvm10AsmPrinter8emitInt8Ei(ptr noundef nonnull align 8 dereferenceable(785) %1, i32 noundef 0) #7
  ret ptr %24
}